; ModuleID = 'source-C-CXX/39/2830.c'
source_filename = "source-C-CXX/39/2830.c"
target datalayout = "e-m:e-p270:32:32-p271:32:32-p272:64:64-i64:64-f80:128-n8:16:32:64-S128"
target triple = "x86_64-pc-linux-gnu"

@.str = private unnamed_addr constant [16 x i8] c"%lf%lf%lf%lf%lf\00", align 1
@.str.1 = private unnamed_addr constant [6 x i8] c"%.4lf\00", align 1
@.str.2 = private unnamed_addr constant [14 x i8] c"Invalid input\00", align 1

; Function Attrs: nofree nounwind sspstrong uwtable
define dso_local i32 @main(i32 %0, i8** nocapture readnone %1) local_unnamed_addr #0 {
  %3 = alloca double, align 8
  %4 = alloca double, align 8
  %5 = alloca double, align 8
  %6 = alloca double, align 8
  %7 = alloca double, align 8
  %8 = bitcast double* %3 to i8*
  call void @llvm.lifetime.start.p0i8(i64 8, i8* nonnull %8) #6
  %9 = bitcast double* %4 to i8*
  call void @llvm.lifetime.start.p0i8(i64 8, i8* nonnull %9) #6
  %10 = bitcast double* %5 to i8*
  call void @llvm.lifetime.start.p0i8(i64 8, i8* nonnull %10) #6
  %11 = bitcast double* %6 to i8*
  call void @llvm.lifetime.start.p0i8(i64 8, i8* nonnull %11) #6
  %12 = bitcast double* %7 to i8*
  call void @llvm.lifetime.start.p0i8(i64 8, i8* nonnull %12) #6
  %13 = call i32 (i8*, ...) @__isoc99_scanf(i8* getelementptr inbounds ([16 x i8], [16 x i8]* @.str, i64 0, i64 0), double* nonnull %3, double* nonnull %4, double* nonnull %5, double* nonnull %6, double* nonnull %7)
  %14 = load double, double* %3, align 8, !tbaa !5
  %15 = load double, double* %4, align 8, !tbaa !5
  %16 = load double, double* %5, align 8, !tbaa !5
  %17 = load double, double* %6, align 8, !tbaa !5
  %18 = fcmp olt double %14, %15
  %19 = select i1 %18, double %15, double %14
  %20 = fcmp olt double %16, %17
  %21 = select i1 %20, double %17, double %16
  %22 = fcmp olt double %19, %21
  %23 = select i1 %22, double %21, double %19
  %24 = fadd double %14, %15
  %25 = fadd double %24, %16
  %26 = fadd double %25, %17
  %27 = fmul double %26, 5.000000e-01
  %28 = fcmp olt double %23, %27
  br i1 %28, label %29, label %51

29:                                               ; preds = %2
  %30 = load double, double* %7, align 8, !tbaa !5
  %31 = fmul double %30, 0x400921FB4D12D84A
  %32 = fdiv double %31, 1.800000e+02
  %33 = fmul double %32, 5.000000e-01
  store double %33, double* %7, align 8, !tbaa !5
  %34 = fsub double %27, %14
  %35 = fsub double %27, %15
  %36 = fmul double %34, %35
  %37 = fsub double %27, %16
  %38 = fmul double %37, %36
  %39 = fsub double %27, %17
  %40 = fmul double %39, %38
  %41 = fmul double %14, %15
  %42 = fmul double %41, %16
  %43 = fmul double %42, %17
  %44 = call double @cos(double %33) #6
  %45 = fmul double %43, %44
  %46 = call double @cos(double %33) #6
  %47 = fmul double %45, %46
  %48 = fsub double %40, %47
  %49 = call double @sqrt(double %48) #6
  %50 = call i32 (i8*, ...) @printf(i8* nonnull dereferenceable(1) getelementptr inbounds ([6 x i8], [6 x i8]* @.str.1, i64 0, i64 0), double %49)
  br label %53

51:                                               ; preds = %2
  %52 = call i32 (i8*, ...) @printf(i8* nonnull dereferenceable(1) getelementptr inbounds ([14 x i8], [14 x i8]* @.str.2, i64 0, i64 0))
  br label %53

53:                                               ; preds = %51, %29
  call void @llvm.lifetime.end.p0i8(i64 8, i8* nonnull %12) #6
  call void @llvm.lifetime.end.p0i8(i64 8, i8* nonnull %11) #6
  call void @llvm.lifetime.end.p0i8(i64 8, i8* nonnull %10) #6
  call void @llvm.lifetime.end.p0i8(i64 8, i8* nonnull %9) #6
  call void @llvm.lifetime.end.p0i8(i64 8, i8* nonnull %8) #6
  ret i32 0
}

; Function Attrs: argmemonly mustprogress nofree nosync nounwind willreturn
declare void @llvm.lifetime.start.p0i8(i64 immarg, i8* nocapture) #1

; Function Attrs: nofree nounwind
declare noundef i32 @__isoc99_scanf(i8* nocapture noundef readonly, ...) local_unnamed_addr #2

; Function Attrs: mustprogress nofree norecurse nosync nounwind readnone sspstrong uwtable willreturn
define dso_local double @max(double %0, double %1, double %2, double %3) local_unnamed_addr #3 {
  %5 = fcmp olt double %0, %1
  %6 = select i1 %5, double %1, double %0
  %7 = fcmp olt double %2, %3
  %8 = select i1 %7, double %3, double %2
  %9 = fcmp olt double %6, %8
  %10 = select i1 %9, double %8, double %6
  ret double %10
}

; Function Attrs: mustprogress nofree nounwind sspstrong uwtable willreturn
define dso_local double @S(double %0, double %1, double %2, double %3, double %4) local_unnamed_addr #4 {
  %6 = fadd double %0, %1
  %7 = fadd double %6, %2
  %8 = fadd double %7, %3
  %9 = fmul double %8, 5.000000e-01
  %10 = fsub double %9, %0
  %11 = fsub double %9, %1
  %12 = fmul double %10, %11
  %13 = fsub double %9, %2
  %14 = fmul double %13, %12
  %15 = fsub double %9, %3
  %16 = fmul double %15, %14
  %17 = fmul double %0, %1
  %18 = fmul double %17, %2
  %19 = fmul double %18, %3
  %20 = tail call double @cos(double %4) #6
  %21 = fmul double %19, %20
  %22 = tail call double @cos(double %4) #6
  %23 = fmul double %21, %22
  %24 = fsub double %16, %23
  %25 = tail call double @sqrt(double %24) #6
  ret double %25
}

; Function Attrs: nofree nounwind
declare noundef i32 @printf(i8* nocapture noundef readonly, ...) local_unnamed_addr #2

; Function Attrs: argmemonly mustprogress nofree nosync nounwind willreturn
declare void @llvm.lifetime.end.p0i8(i64 immarg, i8* nocapture) #1

; Function Attrs: mustprogress nofree nounwind willreturn
declare double @sqrt(double) local_unnamed_addr #5

; Function Attrs: mustprogress nofree nounwind willreturn
declare double @cos(double) local_unnamed_addr #5


!llvm.module.flags = !{!0, !1, !2, !3}
!llvm.ident = !{!4}

!0 = !{i32 1, !"wchar_size", i32 4}
!1 = !{i32 7, !"PIC Level", i32 2}
!2 = !{i32 7, !"PIE Level", i32 2}
!3 = !{i32 7, !"uwtable", i32 1}
!4 = !{!"clang version 13.0.0"}
!5 = !{!6, !6, i64 0}
!6 = !{!"double", !7, i64 0}
!7 = !{!"omnipotent char", !8, i64 0}
!8 = !{!"Simple C/C++ TBAA"}
